; Function Attrs: nounwind uwtable
define ptr @l_Lean_Elab_Tactic_BVDecide_Frontend_Normalize_isSupportedMatch___lambda__12(ptr noundef %0, ptr noundef readonly captures(none) %1, ptr noundef %2, ptr noundef %3, ptr noundef %4, ptr noundef %5, ptr noundef %6, ptr noundef %7) local_unnamed_addr #1 {
lean_dec.exit31:
  %8 = getelementptr i8, ptr %1, i64 8
  %.val = load i64, ptr %8, align 8, !tbaa !12
  %9 = and i64 %.val, 9223372036854775806
  %.not = icmp eq i64 %9, 0
  br i1 %.not, label %12, label %10

10:                                               ; preds = %lean_dec.exit31
  %11 = tail call ptr @l_Lean_Elab_Tactic_BVDecide_Frontend_Normalize_isSupportedMatch___lambda__11(ptr noundef nonnull %1, ptr noundef %2, ptr noundef %0, ptr nonnull poison, ptr noundef %3, ptr noundef %4, ptr noundef %5, ptr noundef %6, ptr noundef %7)
  br label %73

12:                                               ; preds = %lean_dec.exit31
  %13 = ptrtoint ptr %6 to i64
  %14 = and i64 %13, 1
  %.not44 = icmp eq i64 %14, 0
  br i1 %.not44, label %15, label %lean_dec.exit30

15:                                               ; preds = %12
  %16 = load i32, ptr %6, align 4, !tbaa !8
  %17 = icmp sgt i32 %16, 1
  br i1 %17, label %18, label %20, !prof !11

18:                                               ; preds = %15
  %19 = add nsw i32 %16, -1
  store i32 %19, ptr %6, align 4, !tbaa !8
  br label %lean_dec.exit30

20:                                               ; preds = %15
  %.not.i32 = icmp eq i32 %16, 0
  br i1 %.not.i32, label %lean_dec.exit30, label %21

21:                                               ; preds = %20
  tail call void @lean_dec_ref_cold(ptr noundef nonnull %6) #4
  br label %lean_dec.exit30

lean_dec.exit30:                                  ; preds = %21, %20, %18, %12
  %22 = ptrtoint ptr %5 to i64
  %23 = and i64 %22, 1
  %.not45 = icmp eq i64 %23, 0
  br i1 %.not45, label %24, label %lean_dec.exit29

24:                                               ; preds = %lean_dec.exit30
  %25 = load i32, ptr %5, align 4, !tbaa !8
  %26 = icmp sgt i32 %25, 1
  br i1 %26, label %27, label %29, !prof !11

27:                                               ; preds = %24
  %28 = add nsw i32 %25, -1
  store i32 %28, ptr %5, align 4, !tbaa !8
  br label %lean_dec.exit29

29:                                               ; preds = %24
  %.not.i34 = icmp eq i32 %25, 0
  br i1 %.not.i34, label %lean_dec.exit29, label %30

30:                                               ; preds = %29
  tail call void @lean_dec_ref_cold(ptr noundef nonnull %5) #4
  br label %lean_dec.exit29

lean_dec.exit29:                                  ; preds = %30, %29, %27, %lean_dec.exit30
  %31 = ptrtoint ptr %4 to i64
  %32 = and i64 %31, 1
  %.not46 = icmp eq i64 %32, 0
  br i1 %.not46, label %33, label %lean_dec.exit28

33:                                               ; preds = %lean_dec.exit29
  %34 = load i32, ptr %4, align 4, !tbaa !8
  %35 = icmp sgt i32 %34, 1
  br i1 %35, label %36, label %38, !prof !11

36:                                               ; preds = %33
  %37 = add nsw i32 %34, -1
  store i32 %37, ptr %4, align 4, !tbaa !8
  br label %lean_dec.exit28

38:                                               ; preds = %33
  %.not.i36 = icmp eq i32 %34, 0
  br i1 %.not.i36, label %lean_dec.exit28, label %39

39:                                               ; preds = %38
  tail call void @lean_dec_ref_cold(ptr noundef nonnull %4) #4
  br label %lean_dec.exit28

lean_dec.exit28:                                  ; preds = %39, %38, %36, %lean_dec.exit29
  %40 = ptrtoint ptr %3 to i64
  %41 = and i64 %40, 1
  %.not47 = icmp eq i64 %41, 0
  br i1 %.not47, label %42, label %lean_dec.exit27

42:                                               ; preds = %lean_dec.exit28
  %43 = load i32, ptr %3, align 4, !tbaa !8
  %44 = icmp sgt i32 %43, 1
  br i1 %44, label %45, label %47, !prof !11

45:                                               ; preds = %42
  %46 = add nsw i32 %43, -1
  store i32 %46, ptr %3, align 4, !tbaa !8
  br label %lean_dec.exit27

47:                                               ; preds = %42
  %.not.i38 = icmp eq i32 %43, 0
  br i1 %.not.i38, label %lean_dec.exit27, label %48

48:                                               ; preds = %47
  tail call void @lean_dec_ref_cold(ptr noundef nonnull %3) #4
  br label %lean_dec.exit27

lean_dec.exit27:                                  ; preds = %48, %47, %45, %lean_dec.exit28
  %49 = ptrtoint ptr %2 to i64
  %50 = and i64 %49, 1
  %.not48 = icmp eq i64 %50, 0
  br i1 %.not48, label %51, label %lean_dec.exit26

51:                                               ; preds = %lean_dec.exit27
  %52 = load i32, ptr %2, align 4, !tbaa !8
  %53 = icmp sgt i32 %52, 1
  br i1 %53, label %54, label %56, !prof !11

54:                                               ; preds = %51
  %55 = add nsw i32 %52, -1
  store i32 %55, ptr %2, align 4, !tbaa !8
  br label %lean_dec.exit26

56:                                               ; preds = %51
  %.not.i40 = icmp eq i32 %52, 0
  br i1 %.not.i40, label %lean_dec.exit26, label %57

57:                                               ; preds = %56
  tail call void @lean_dec_ref_cold(ptr noundef nonnull %2) #4
  br label %lean_dec.exit26

lean_dec.exit26:                                  ; preds = %57, %56, %54, %lean_dec.exit27
  %58 = ptrtoint ptr %0 to i64
  %59 = and i64 %58, 1
  %.not49 = icmp eq i64 %59, 0
  br i1 %.not49, label %60, label %lean_dec.exit

60:                                               ; preds = %lean_dec.exit26
  %61 = load i32, ptr %0, align 4, !tbaa !8
  %62 = icmp sgt i32 %61, 1
  br i1 %62, label %63, label %65, !prof !11

63:                                               ; preds = %60
  %64 = add nsw i32 %61, -1
  store i32 %64, ptr %0, align 4, !tbaa !8
  br label %lean_dec.exit

65:                                               ; preds = %60
  %.not.i42 = icmp eq i32 %61, 0
  br i1 %.not.i42, label %lean_dec.exit, label %66

66:                                               ; preds = %65
  tail call void @lean_dec_ref_cold(ptr noundef nonnull %0) #4
  br label %lean_dec.exit

lean_dec.exit:                                    ; preds = %66, %65, %63, %lean_dec.exit26
  tail call void @lean_inc_heartbeat() #4
  %67 = tail call noalias ptr @mi_malloc_small(i64 noundef 24) #4
  %68 = icmp eq ptr %67, null
  br i1 %68, label %69, label %lean_alloc_ctor.exit

69:                                               ; preds = %lean_dec.exit
  tail call void @lean_internal_panic_out_of_memory() #5
  unreachable

lean_alloc_ctor.exit:                             ; preds = %lean_dec.exit
  %70 = getelementptr inbounds nuw i8, ptr %67, i64 4
  store i32 1, ptr %67, align 4, !tbaa !8
  store i32 131096, ptr %70, align 4
  %71 = getelementptr inbounds nuw i8, ptr %67, i64 8
  store ptr inttoptr (i64 1 to ptr), ptr %71, align 8, !tbaa !4
  %72 = getelementptr inbounds nuw i8, ptr %67, i64 16
  store ptr %7, ptr %72, align 8, !tbaa !4
  br label %73

73:                                               ; preds = %lean_alloc_ctor.exit, %10
  %.0 = phi ptr [ %11, %10 ], [ %67, %lean_alloc_ctor.exit ]
  ret ptr %.0
}